; Function Attrs: mustprogress uwtable
define dso_local noundef ptr @_Z17SpellcheckStringVRKNSt7__cxx1112basic_stringIcSt11char_traitsIcESaIcEEERKSt6vectorIPKcSaIS9_EE(ptr noundef nonnull readonly align 8 captures(none) dereferenceable(32) %0, ptr noundef nonnull readonly align 8 captures(none) dereferenceable(24) %1) local_unnamed_addr #7 personality ptr @__gxx_personality_v0 {
  %3 = alloca %struct.StringPiece, align 8
  %4 = alloca %struct.StringPiece, align 8
  %5 = load ptr, ptr %1, align 8, !tbaa !31
  %6 = getelementptr inbounds nuw i8, ptr %1, i64 8
  %7 = load ptr, ptr %6, align 8, !tbaa !31
  %.not13 = icmp eq ptr %5, %7
  br i1 %.not13, label %._crit_edge, label %.lr.ph

.lr.ph:                                           ; preds = %2
  %8 = getelementptr inbounds nuw i8, ptr %3, i64 8
  %9 = getelementptr inbounds nuw i8, ptr %4, i64 8
  %10 = getelementptr inbounds nuw i8, ptr %0, i64 8
  br label %11

._crit_edge:                                      ; preds = %20, %2
  %.06.lcssa = phi ptr [ null, %2 ], [ %.17, %20 ]
  ret ptr %.06.lcssa

11:                                               ; preds = %.lr.ph, %20
  %.016 = phi i32 [ 4, %.lr.ph ], [ %.1, %20 ]
  %.0615 = phi ptr [ null, %.lr.ph ], [ %.17, %20 ]
  %.sroa.09.014 = phi ptr [ %5, %.lr.ph ], [ %21, %20 ]
  call void @llvm.lifetime.start.p0(i64 16, ptr nonnull %3) #32
  %12 = load ptr, ptr %.sroa.09.014, align 8, !tbaa !34
  store ptr %12, ptr %3, align 8, !tbaa !35
  %13 = call i64 @strlen(ptr noundef nonnull dereferenceable(1) %12) #36
  store i64 %13, ptr %8, align 8, !tbaa !37
  call void @llvm.lifetime.start.p0(i64 16, ptr nonnull %4) #32
  %14 = load ptr, ptr %0, align 8, !tbaa !15
  store ptr %14, ptr %4, align 8, !tbaa !35
  %15 = load i64, ptr %10, align 8, !tbaa !9
  store i64 %15, ptr %9, align 8, !tbaa !37
  %16 = call noundef i32 @_Z12EditDistanceRK11StringPieceS1_bi(ptr noundef nonnull align 8 dereferenceable(16) %3, ptr noundef nonnull align 8 dereferenceable(16) %4, i1 noundef zeroext true, i32 noundef 3)
  call void @llvm.lifetime.end.p0(i64 16, ptr nonnull %4) #32
  call void @llvm.lifetime.end.p0(i64 16, ptr nonnull %3) #32
  %17 = icmp slt i32 %16, %.016
  br i1 %17, label %18, label %20

18:                                               ; preds = %11
  %19 = load ptr, ptr %.sroa.09.014, align 8, !tbaa !34
  br label %20

20:                                               ; preds = %18, %11
  %.17 = phi ptr [ %19, %18 ], [ %.0615, %11 ]
  %.1 = phi i32 [ %16, %18 ], [ %.016, %11 ]
  %21 = getelementptr inbounds nuw i8, ptr %.sroa.09.014, i64 8
  %22 = load ptr, ptr %6, align 8, !tbaa !31
  %.not = icmp eq ptr %21, %22
  br i1 %.not, label %._crit_edge, label %11, !llvm.loop !38
}